; Function Attrs: mustprogress uwtable
define noundef double @_ZN6icu_7718CalendarAstronomer11getMoonTimeERKNS0_7MoonAgeEa(ptr noundef nonnull align 8 dereferenceable(57) %0, ptr noundef nonnull readonly align 8 captures(none) dereferenceable(8) %1, i8 noundef signext %2) local_unnamed_addr #0 align 2 personality ptr @__gxx_personality_v0 {
  %4 = alloca %"class.icu_77::MoonTimeAngleFunc", align 8
  call void @llvm.lifetime.start.p0(i64 8, ptr nonnull %4) #16
  store ptr getelementptr inbounds nuw inrange(-16, 24) (i8, ptr @_ZTVN6icu_7717MoonTimeAngleFuncE, i64 16), ptr %4, align 8, !tbaa !21
  %5 = load double, ptr %1, align 8, !tbaa !24
  %6 = invoke noundef double @_ZN6icu_7718CalendarAstronomer11timeOfAngleERNS0_9AngleFuncEddda(ptr noundef nonnull align 8 dereferenceable(57) %0, ptr noundef nonnull align 8 dereferenceable(8) %4, double noundef %5, double noundef 0x403D87D4ABCB41D5, double noundef 6.000000e+04, i8 noundef signext %2)
          to label %7 unwind label %8

7:                                                ; preds = %3
  call void @_ZN6icu_7717MoonTimeAngleFuncD1Ev(ptr noundef nonnull align 8 dereferenceable(8) %4) #16
  call void @llvm.lifetime.end.p0(i64 8, ptr nonnull %4) #16
  ret double %6

8:                                                ; preds = %3
  %9 = landingpad { ptr, i32 }
          cleanup
  call void @_ZN6icu_7717MoonTimeAngleFuncD1Ev(ptr noundef nonnull align 8 dereferenceable(8) %4) #16
  call void @llvm.lifetime.end.p0(i64 8, ptr nonnull %4) #16
  resume { ptr, i32 } %9
}